target datalayout = "e-m:e-p270:32:32-p271:32:32-p272:64:64-i64:64-i128:128-f80:128-n8:16:32:64-S128"
target triple = "x86_64-pc-linux-gnu"

%struct.H5VL_file_get_args_t = type { i32, %union.anon }
%union.anon = type { %struct.H5VL_file_get_name_args_t }
%struct.H5VL_file_get_name_args_t = type { i32, i64, ptr, ptr }
%struct.H5CX_node_t = type { %struct.H5CX_t, ptr }
%struct.H5CX_t = type { i64, ptr, i64, ptr, i64, ptr, i64, ptr, i64, ptr, i64, ptr, i64, i32, i64, i8, ptr, i8, ptr, i8, i32, i8, [3 x double], i8, i64, i8, i32, i8, %struct.H5Z_cb_t, i8, ptr, i8, %struct.H5T_vlen_alloc_info_t, i8, %struct.H5T_conv_cb_t, i8, i32, i8, i8, i8, i32, i8, i8, i32, i8, i8, i32, i8, i32, i8, i64, i8, i8, i8, i8, i8, ptr, i8, ptr, i8, i32, i8, i32, i8, %struct.H5VL_connector_prop_t, i8, ptr, i8 }
%struct.H5Z_cb_t = type { ptr, ptr }
%struct.H5T_vlen_alloc_info_t = type { ptr, ptr, ptr, ptr }
%struct.H5T_conv_cb_t = type { ptr, ptr }
%struct.H5VL_connector_prop_t = type { ptr, ptr }

@H5_libinit_g = external global i8, align 1
@H5_libterm_g = external global i8, align 1
@.str = private unnamed_addr constant [97 x i8] c"generated/home/dtcxzyw/WorkSpace/Projects/compilers/llvm-opt-benchmark/bench/hdf5/hdf5/src/H5F.c\00", align 1
@H5E_FUNC_g = external global i64, align 8
@H5E_CANTINIT_g = external global i64, align 8
@.str.1 = private unnamed_addr constant [30 x i8] c"library initialization failed\00", align 1
@H5F_init_g = external global i8, align 1
@.str.2 = private unnamed_addr constant [32 x i8] c"interface initialization failed\00", align 1
@H5E_CANTSET_g = external global i64, align 8
@.str.3 = private unnamed_addr constant [22 x i8] c"can't set API context\00", align 1
@H5E_ARGS_g = external global i64, align 8
@H5E_BADTYPE_g = external global i64, align 8
@.str.4 = private unnamed_addr constant [24 x i8] c"invalid file identifier\00", align 1
@H5P_LST_DATASET_XFER_ID_g = external global i64, align 8
@H5E_FILE_g = external global i64, align 8
@H5E_CANTGET_g = external global i64, align 8
@__func__.H5Fget_name = private unnamed_addr constant [12 x i8] c"H5Fget_name\00", align 1
@.str.92 = private unnamed_addr constant [26 x i8] c"not a file or file object\00", align 1
@.str.93 = private unnamed_addr constant [24 x i8] c"unable to get file name\00", align 1

; Function Attrs: nounwind uwtable
define i64 @H5Fget_name(i64 noundef %0, ptr noundef %1, i64 noundef %2) #0 {
  %4 = alloca i64, align 8
  %5 = alloca ptr, align 8
  %6 = alloca i64, align 8
  %7 = alloca ptr, align 8
  %8 = alloca %struct.H5VL_file_get_args_t, align 8
  %9 = alloca i32, align 4
  %10 = alloca i64, align 8
  %11 = alloca i64, align 8
  %12 = alloca %struct.H5CX_node_t, align 8
  %13 = alloca i8, align 1
  %14 = alloca i8, align 1
  store i64 %0, ptr %4, align 8, !tbaa !3
  store ptr %1, ptr %5, align 8, !tbaa !32
  store i64 %2, ptr %6, align 8, !tbaa !3
  call void @llvm.lifetime.start.p0(i64 8, ptr %7) #5
  call void @llvm.lifetime.start.p0(i64 40, ptr %8) #5
  call void @llvm.lifetime.start.p0(i64 4, ptr %9) #5
  call void @llvm.lifetime.start.p0(i64 8, ptr %10) #5
  store i64 0, ptr %10, align 8, !tbaa !3
  call void @llvm.lifetime.start.p0(i64 8, ptr %11) #5
  store i64 -1, ptr %11, align 8, !tbaa !3
  call void @llvm.lifetime.start.p0(i64 480, ptr %12) #5
  call void @llvm.memset.p0.i64(ptr align 8 %12, i8 0, i64 480, i1 false)
  call void @llvm.lifetime.start.p0(i64 1, ptr %13) #5
  store i8 0, ptr %13, align 1, !tbaa !7
  call void @llvm.lifetime.start.p0(i64 1, ptr %14) #5
  store i8 0, ptr %14, align 1, !tbaa !7
  br label %15

15:                                               ; preds = %3
  %16 = load i8, ptr @H5_libinit_g, align 1, !tbaa !7, !range !9, !noundef !10
  %17 = trunc i8 %16 to i1
  br i1 %17, label %22, label %18

18:                                               ; preds = %15
  %19 = load i8, ptr @H5_libterm_g, align 1, !tbaa !7, !range !9, !noundef !10
  %20 = trunc i8 %19 to i1
  %21 = xor i1 %20, true
  br label %22

22:                                               ; preds = %18, %15
  %23 = phi i1 [ false, %15 ], [ %21, %18 ]
  %24 = xor i1 %23, true
  %25 = xor i1 %24, true
  %26 = zext i1 %25 to i32
  %27 = sext i32 %26 to i64
  %28 = call i64 @llvm.expect.i64(i64 %27, i64 0)
  %29 = icmp ne i64 %28, 0
  br i1 %29, label %30, label %59

30:                                               ; preds = %22
  %31 = call i32 @H5_init_library()
  %32 = icmp slt i32 %31, 0
  %33 = xor i1 %32, true
  %34 = xor i1 %33, true
  %35 = zext i1 %34 to i32
  %36 = sext i32 %35 to i64
  %37 = call i64 @llvm.expect.i64(i64 %36, i64 0)
  %38 = icmp ne i64 %37, 0
  br i1 %38, label %39, label %58

39:                                               ; preds = %30
  br label %40

40:                                               ; preds = %39
  br label %41

41:                                               ; preds = %40
  br label %42

42:                                               ; preds = %41
  %43 = load i64, ptr @H5E_FUNC_g, align 8, !tbaa !3
  %44 = load i64, ptr @H5E_CANTINIT_g, align 8, !tbaa !3
  %45 = call i32 (ptr, ptr, i32, i64, i64, ptr, ...) @H5E_printf_stack(ptr noundef @.str, ptr noundef @__func__.H5Fget_name, i32 noundef 1999, i64 noundef %43, i64 noundef %44, ptr noundef @.str.1)
  br label %46

46:                                               ; preds = %42
  br label %47

47:                                               ; preds = %46
  store i8 1, ptr %14, align 1, !tbaa !7
  %48 = load i8, ptr %14, align 1, !tbaa !7, !range !9, !noundef !10
  %49 = trunc i8 %48 to i1
  %50 = zext i1 %49 to i8
  store i8 %50, ptr %14, align 1, !tbaa !7
  br label %51

51:                                               ; preds = %47
  br label %52

52:                                               ; preds = %51
  br label %53

53:                                               ; preds = %52
  store i64 -1, ptr %11, align 8, !tbaa !3
  br label %229

54:                                               ; No predecessors!
  br label %55

55:                                               ; preds = %54
  br label %56

56:                                               ; preds = %55
  br label %57

57:                                               ; preds = %56
  br label %58

58:                                               ; preds = %57, %30
  br label %59

59:                                               ; preds = %58, %22
  %60 = load i8, ptr @H5F_init_g, align 1, !tbaa !7, !range !9, !noundef !10
  %61 = trunc i8 %60 to i1
  br i1 %61, label %66, label %62

62:                                               ; preds = %59
  %63 = load i8, ptr @H5_libterm_g, align 1, !tbaa !7, !range !9, !noundef !10
  %64 = trunc i8 %63 to i1
  %65 = xor i1 %64, true
  br label %66

66:                                               ; preds = %62, %59
  %67 = phi i1 [ false, %59 ], [ %65, %62 ]
  %68 = xor i1 %67, true
  %69 = xor i1 %68, true
  %70 = zext i1 %69 to i32
  %71 = sext i32 %70 to i64
  %72 = call i64 @llvm.expect.i64(i64 %71, i64 0)
  %73 = icmp ne i64 %72, 0
  br i1 %73, label %74, label %97

74:                                               ; preds = %66
  store i8 1, ptr @H5F_init_g, align 1, !tbaa !7
  %75 = call i32 @H5F__init_package()
  %76 = icmp slt i32 %75, 0
  br i1 %76, label %77, label %96

77:                                               ; preds = %74
  store i8 0, ptr @H5F_init_g, align 1, !tbaa !7
  br label %78

78:                                               ; preds = %77
  br label %79

79:                                               ; preds = %78
  br label %80

80:                                               ; preds = %79
  %81 = load i64, ptr @H5E_FUNC_g, align 8, !tbaa !3
  %82 = load i64, ptr @H5E_CANTINIT_g, align 8, !tbaa !3
  %83 = call i32 (ptr, ptr, i32, i64, i64, ptr, ...) @H5E_printf_stack(ptr noundef @.str, ptr noundef @__func__.H5Fget_name, i32 noundef 1999, i64 noundef %81, i64 noundef %82, ptr noundef @.str.2)
  br label %84

84:                                               ; preds = %80
  br label %85

85:                                               ; preds = %84
  store i8 1, ptr %14, align 1, !tbaa !7
  %86 = load i8, ptr %14, align 1, !tbaa !7, !range !9, !noundef !10
  %87 = trunc i8 %86 to i1
  %88 = zext i1 %87 to i8
  store i8 %88, ptr %14, align 1, !tbaa !7
  br label %89

89:                                               ; preds = %85
  br label %90

90:                                               ; preds = %89
  br label %91

91:                                               ; preds = %90
  store i64 -1, ptr %11, align 8, !tbaa !3
  br label %229

92:                                               ; No predecessors!
  br label %93

93:                                               ; preds = %92
  br label %94

94:                                               ; preds = %93
  br label %95

95:                                               ; preds = %94
  br label %96

96:                                               ; preds = %95, %74
  br label %97

97:                                               ; preds = %96, %66
  br label %98

98:                                               ; preds = %97
  br label %99

99:                                               ; preds = %98
  br label %100

100:                                              ; preds = %99
  %101 = call i32 @H5CX_push(ptr noundef %12)
  %102 = icmp slt i32 %101, 0
  %103 = xor i1 %102, true
  %104 = xor i1 %103, true
  %105 = zext i1 %104 to i32
  %106 = sext i32 %105 to i64
  %107 = call i64 @llvm.expect.i64(i64 %106, i64 0)
  %108 = icmp ne i64 %107, 0
  br i1 %108, label %109, label %128

109:                                              ; preds = %100
  br label %110

110:                                              ; preds = %109
  br label %111

111:                                              ; preds = %110
  br label %112

112:                                              ; preds = %111
  %113 = load i64, ptr @H5E_FUNC_g, align 8, !tbaa !3
  %114 = load i64, ptr @H5E_CANTSET_g, align 8, !tbaa !3
  %115 = call i32 (ptr, ptr, i32, i64, i64, ptr, ...) @H5E_printf_stack(ptr noundef @.str, ptr noundef @__func__.H5Fget_name, i32 noundef 1999, i64 noundef %113, i64 noundef %114, ptr noundef @.str.3)
  br label %116

116:                                              ; preds = %112
  br label %117

117:                                              ; preds = %116
  store i8 1, ptr %14, align 1, !tbaa !7
  %118 = load i8, ptr %14, align 1, !tbaa !7, !range !9, !noundef !10
  %119 = trunc i8 %118 to i1
  %120 = zext i1 %119 to i8
  store i8 %120, ptr %14, align 1, !tbaa !7
  br label %121

121:                                              ; preds = %117
  br label %122

122:                                              ; preds = %121
  br label %123

123:                                              ; preds = %122
  store i64 -1, ptr %11, align 8, !tbaa !3
  br label %229

124:                                              ; No predecessors!
  br label %125

125:                                              ; preds = %124
  br label %126

126:                                              ; preds = %125
  br label %127

127:                                              ; preds = %126
  br label %129

128:                                              ; preds = %100
  store i8 1, ptr %13, align 1, !tbaa !7
  br label %129

129:                                              ; preds = %128, %127
  br label %130

130:                                              ; preds = %129
  br label %131

131:                                              ; preds = %130
  %132 = call i32 @H5E_clear_stack()
  %133 = load i64, ptr %4, align 8, !tbaa !3
  %134 = call i32 @H5I_get_type(i64 noundef %133)
  store i32 %134, ptr %9, align 4, !tbaa !18
  %135 = load i32, ptr %9, align 4, !tbaa !18
  %136 = icmp ne i32 1, %135
  br i1 %136, label %137, label %168

137:                                              ; preds = %131
  %138 = load i32, ptr %9, align 4, !tbaa !18
  %139 = icmp ne i32 2, %138
  br i1 %139, label %140, label %168

140:                                              ; preds = %137
  %141 = load i32, ptr %9, align 4, !tbaa !18
  %142 = icmp ne i32 3, %141
  br i1 %142, label %143, label %168

143:                                              ; preds = %140
  %144 = load i32, ptr %9, align 4, !tbaa !18
  %145 = icmp ne i32 5, %144
  br i1 %145, label %146, label %168

146:                                              ; preds = %143
  %147 = load i32, ptr %9, align 4, !tbaa !18
  %148 = icmp ne i32 7, %147
  br i1 %148, label %149, label %168

149:                                              ; preds = %146
  br label %150

150:                                              ; preds = %149
  br label %151

151:                                              ; preds = %150
  br label %152

152:                                              ; preds = %151
  %153 = load i64, ptr @H5E_ARGS_g, align 8, !tbaa !3
  %154 = load i64, ptr @H5E_BADTYPE_g, align 8, !tbaa !3
  %155 = call i32 (ptr, ptr, i32, i64, i64, ptr, ...) @H5E_printf_stack(ptr noundef @.str, ptr noundef @__func__.H5Fget_name, i32 noundef 2005, i64 noundef %153, i64 noundef %154, ptr noundef @.str.92)
  br label %156

156:                                              ; preds = %152
  br label %157

157:                                              ; preds = %156
  store i8 1, ptr %14, align 1, !tbaa !7
  %158 = load i8, ptr %14, align 1, !tbaa !7, !range !9, !noundef !10
  %159 = trunc i8 %158 to i1
  %160 = zext i1 %159 to i8
  store i8 %160, ptr %14, align 1, !tbaa !7
  br label %161

161:                                              ; preds = %157
  br label %162

162:                                              ; preds = %161
  br label %163

163:                                              ; preds = %162
  store i64 -1, ptr %11, align 8, !tbaa !3
  br label %229

164:                                              ; No predecessors!
  br label %165

165:                                              ; preds = %164
  br label %166

166:                                              ; preds = %165
  br label %167

167:                                              ; preds = %166
  br label %168

168:                                              ; preds = %167, %146, %143, %140, %137, %131
  %169 = load i64, ptr %4, align 8, !tbaa !3
  %170 = call ptr @H5VL_vol_object(i64 noundef %169)
  store ptr %170, ptr %7, align 8, !tbaa !11
  %171 = icmp eq ptr null, %170
  br i1 %171, label %172, label %191

172:                                              ; preds = %168
  br label %173

173:                                              ; preds = %172
  br label %174

174:                                              ; preds = %173
  br label %175

175:                                              ; preds = %174
  %176 = load i64, ptr @H5E_ARGS_g, align 8, !tbaa !3
  %177 = load i64, ptr @H5E_BADTYPE_g, align 8, !tbaa !3
  %178 = call i32 (ptr, ptr, i32, i64, i64, ptr, ...) @H5E_printf_stack(ptr noundef @.str, ptr noundef @__func__.H5Fget_name, i32 noundef 2009, i64 noundef %176, i64 noundef %177, ptr noundef @.str.4)
  br label %179

179:                                              ; preds = %175
  br label %180

180:                                              ; preds = %179
  store i8 1, ptr %14, align 1, !tbaa !7
  %181 = load i8, ptr %14, align 1, !tbaa !7, !range !9, !noundef !10
  %182 = trunc i8 %181 to i1
  %183 = zext i1 %182 to i8
  store i8 %183, ptr %14, align 1, !tbaa !7
  br label %184

184:                                              ; preds = %180
  br label %185

185:                                              ; preds = %184
  br label %186

186:                                              ; preds = %185
  store i64 -1, ptr %11, align 8, !tbaa !3
  br label %229

187:                                              ; No predecessors!
  br label %188

188:                                              ; preds = %187
  br label %189

189:                                              ; preds = %188
  br label %190

190:                                              ; preds = %189
  br label %191

191:                                              ; preds = %190, %168
  %192 = getelementptr inbounds nuw %struct.H5VL_file_get_args_t, ptr %8, i32 0, i32 0
  store i32 5, ptr %192, align 8, !tbaa !14
  %193 = load i32, ptr %9, align 4, !tbaa !18
  %194 = getelementptr inbounds nuw %struct.H5VL_file_get_args_t, ptr %8, i32 0, i32 1
  %195 = getelementptr inbounds nuw %struct.H5VL_file_get_name_args_t, ptr %194, i32 0, i32 0
  store i32 %193, ptr %195, align 8, !tbaa !17
  %196 = load i64, ptr %6, align 8, !tbaa !3
  %197 = getelementptr inbounds nuw %struct.H5VL_file_get_args_t, ptr %8, i32 0, i32 1
  %198 = getelementptr inbounds nuw %struct.H5VL_file_get_name_args_t, ptr %197, i32 0, i32 1
  store i64 %196, ptr %198, align 8, !tbaa !17
  %199 = load ptr, ptr %5, align 8, !tbaa !32
  %200 = getelementptr inbounds nuw %struct.H5VL_file_get_args_t, ptr %8, i32 0, i32 1
  %201 = getelementptr inbounds nuw %struct.H5VL_file_get_name_args_t, ptr %200, i32 0, i32 2
  store ptr %199, ptr %201, align 8, !tbaa !17
  %202 = getelementptr inbounds nuw %struct.H5VL_file_get_args_t, ptr %8, i32 0, i32 1
  %203 = getelementptr inbounds nuw %struct.H5VL_file_get_name_args_t, ptr %202, i32 0, i32 3
  store ptr %10, ptr %203, align 8, !tbaa !17
  %204 = load ptr, ptr %7, align 8, !tbaa !11
  %205 = load i64, ptr @H5P_LST_DATASET_XFER_ID_g, align 8, !tbaa !3
  %206 = call i32 @H5VL_file_get(ptr noundef %204, ptr noundef %8, i64 noundef %205, ptr noundef null)
  %207 = icmp slt i32 %206, 0
  br i1 %207, label %208, label %227

208:                                              ; preds = %191
  br label %209

209:                                              ; preds = %208
  br label %210

210:                                              ; preds = %209
  br label %211

211:                                              ; preds = %210
  %212 = load i64, ptr @H5E_FILE_g, align 8, !tbaa !3
  %213 = load i64, ptr @H5E_CANTGET_g, align 8, !tbaa !3
  %214 = call i32 (ptr, ptr, i32, i64, i64, ptr, ...) @H5E_printf_stack(ptr noundef @.str, ptr noundef @__func__.H5Fget_name, i32 noundef 2020, i64 noundef %212, i64 noundef %213, ptr noundef @.str.93)
  br label %215

215:                                              ; preds = %211
  br label %216

216:                                              ; preds = %215
  store i8 1, ptr %14, align 1, !tbaa !7
  %217 = load i8, ptr %14, align 1, !tbaa !7, !range !9, !noundef !10
  %218 = trunc i8 %217 to i1
  %219 = zext i1 %218 to i8
  store i8 %219, ptr %14, align 1, !tbaa !7
  br label %220

220:                                              ; preds = %216
  br label %221

221:                                              ; preds = %220
  br label %222

222:                                              ; preds = %221
  store i64 -1, ptr %11, align 8, !tbaa !3
  br label %229

223:                                              ; No predecessors!
  br label %224

224:                                              ; preds = %223
  br label %225

225:                                              ; preds = %224
  br label %226

226:                                              ; preds = %225
  br label %227

227:                                              ; preds = %226, %191
  %228 = load i64, ptr %10, align 8, !tbaa !3
  store i64 %228, ptr %11, align 8, !tbaa !3
  br label %229

229:                                              ; preds = %227, %222, %186, %163, %123, %91, %53
  %230 = load i8, ptr %13, align 1, !tbaa !7, !range !9, !noundef !10
  %231 = trunc i8 %230 to i1
  %232 = xor i1 %231, true
  %233 = xor i1 %232, true
  %234 = zext i1 %233 to i32
  %235 = sext i32 %234 to i64
  %236 = call i64 @llvm.expect.i64(i64 %235, i64 1)
  %237 = icmp ne i64 %236, 0
  br i1 %237, label %238, label %240

238:                                              ; preds = %229
  %239 = call i32 @H5CX_pop(i1 noundef zeroext true)
  store i8 0, ptr %13, align 1, !tbaa !7
  br label %240

240:                                              ; preds = %238, %229
  %241 = load i8, ptr %14, align 1, !tbaa !7, !range !9, !noundef !10
  %242 = trunc i8 %241 to i1
  %243 = xor i1 %242, true
  %244 = xor i1 %243, true
  %245 = zext i1 %244 to i32
  %246 = sext i32 %245 to i64
  %247 = call i64 @llvm.expect.i64(i64 %246, i64 0)
  %248 = icmp ne i64 %247, 0
  br i1 %248, label %249, label %251

249:                                              ; preds = %240
  %250 = call i32 @H5E_dump_api_stack()
  br label %251

251:                                              ; preds = %249, %240
  %252 = load i64, ptr %11, align 8, !tbaa !3
  call void @llvm.lifetime.end.p0(i64 1, ptr %14) #5
  call void @llvm.lifetime.end.p0(i64 1, ptr %13) #5
  call void @llvm.lifetime.end.p0(i64 480, ptr %12) #5
  call void @llvm.lifetime.end.p0(i64 8, ptr %11) #5
  call void @llvm.lifetime.end.p0(i64 8, ptr %10) #5
  call void @llvm.lifetime.end.p0(i64 4, ptr %9) #5
  call void @llvm.lifetime.end.p0(i64 40, ptr %8) #5
  call void @llvm.lifetime.end.p0(i64 8, ptr %7) #5
  ret i64 %252
}