; Function Attrs: nounwind uwtable
define i64 @H5Fget_name(i64 noundef %0, ptr noundef %1, i64 noundef %2) local_unnamed_addr #0 {
  %4 = alloca %struct.H5VL_file_get_args_t, align 8
  %5 = alloca i64, align 8
  %6 = alloca %struct.H5CX_node_t, align 8
  call void @llvm.lifetime.start.p0(i64 40, ptr nonnull %4) #6
  call void @llvm.lifetime.start.p0(i64 8, ptr nonnull %5) #6
  store i64 0, ptr %5, align 8, !tbaa !11
  call void @llvm.lifetime.start.p0(i64 480, ptr nonnull %6) #6
  call void @llvm.memset.p0.i64(ptr noundef nonnull align 8 dereferenceable(480) %6, i8 0, i64 480, i1 false)
  %7 = load i8, ptr @H5_libinit_g, align 1, !tbaa !3, !range !7, !noundef !8
  %8 = trunc nuw i8 %7 to i1
  %9 = load i8, ptr @H5_libterm_g, align 1, !range !7
  %10 = trunc nuw i8 %9 to i1
  %11 = select i1 %8, i1 true, i1 %10
  br i1 %11, label %19, label %12, !prof !9

12:                                               ; preds = %3
  %13 = tail call i32 @H5_init_library() #6
  %14 = icmp slt i32 %13, 0
  br i1 %14, label %15, label %._crit_edge, !prof !10

._crit_edge:                                      ; preds = %12
  %.pre = load i8, ptr @H5_libterm_g, align 1, !range !7
  br label %19

15:                                               ; preds = %12
  %16 = load i64, ptr @H5E_FUNC_g, align 8, !tbaa !11
  %17 = load i64, ptr @H5E_CANTINIT_g, align 8, !tbaa !11
  %18 = tail call i32 (ptr, ptr, i32, i64, i64, ptr, ...) @H5E_printf_stack(ptr noundef nonnull @.str, ptr noundef nonnull @__func__.H5Fget_name, i32 noundef 1999, i64 noundef %16, i64 noundef %17, ptr noundef nonnull @.str.1) #6
  br label %.thread37

19:                                               ; preds = %._crit_edge, %3
  %20 = phi i8 [ %.pre, %._crit_edge ], [ %9, %3 ]
  %21 = load i8, ptr @H5F_init_g, align 1, !tbaa !3, !range !7, !noundef !8
  %22 = trunc nuw i8 %21 to i1
  %23 = trunc nuw i8 %20 to i1
  %24 = select i1 %22, i1 true, i1 %23
  br i1 %24, label %32, label %25, !prof !9

25:                                               ; preds = %19
  store i8 1, ptr @H5F_init_g, align 1, !tbaa !3
  %26 = tail call i32 @H5F__init_package() #6
  %27 = icmp slt i32 %26, 0
  br i1 %27, label %28, label %32, !prof !13

28:                                               ; preds = %25
  store i8 0, ptr @H5F_init_g, align 1, !tbaa !3
  %29 = load i64, ptr @H5E_FUNC_g, align 8, !tbaa !11
  %30 = load i64, ptr @H5E_CANTINIT_g, align 8, !tbaa !11
  %31 = tail call i32 (ptr, ptr, i32, i64, i64, ptr, ...) @H5E_printf_stack(ptr noundef nonnull @.str, ptr noundef nonnull @__func__.H5Fget_name, i32 noundef 1999, i64 noundef %29, i64 noundef %30, ptr noundef nonnull @.str.2) #6
  br label %.thread37

32:                                               ; preds = %19, %25
  %33 = call i32 @H5CX_push(ptr noundef nonnull %6) #6
  %34 = icmp slt i32 %33, 0
  br i1 %34, label %35, label %39, !prof !10

35:                                               ; preds = %32
  %36 = load i64, ptr @H5E_FUNC_g, align 8, !tbaa !11
  %37 = load i64, ptr @H5E_CANTSET_g, align 8, !tbaa !11
  %38 = call i32 (ptr, ptr, i32, i64, i64, ptr, ...) @H5E_printf_stack(ptr noundef nonnull @.str, ptr noundef nonnull @__func__.H5Fget_name, i32 noundef 1999, i64 noundef %36, i64 noundef %37, ptr noundef nonnull @.str.3) #6
  br label %.thread37

39:                                               ; preds = %32
  %40 = call i32 @H5E_clear_stack() #6
  %41 = call i32 @H5I_get_type(i64 noundef %0) #6
  switch i32 %41, label %42 [
    i32 7, label %46
    i32 5, label %46
    i32 3, label %46
    i32 2, label %46
    i32 1, label %46
  ]

42:                                               ; preds = %39
  %43 = load i64, ptr @H5E_ARGS_g, align 8, !tbaa !11
  %44 = load i64, ptr @H5E_BADTYPE_g, align 8, !tbaa !11
  %45 = call i32 (ptr, ptr, i32, i64, i64, ptr, ...) @H5E_printf_stack(ptr noundef nonnull @.str, ptr noundef nonnull @__func__.H5Fget_name, i32 noundef 2005, i64 noundef %43, i64 noundef %44, ptr noundef nonnull @.str.92) #6
  br label %.thread43

46:                                               ; preds = %39, %39, %39, %39, %39
  %47 = call ptr @H5VL_vol_object(i64 noundef %0) #6
  %48 = icmp eq ptr %47, null
  br i1 %48, label %49, label %53, !prof !14

49:                                               ; preds = %46
  %50 = load i64, ptr @H5E_ARGS_g, align 8, !tbaa !11
  %51 = load i64, ptr @H5E_BADTYPE_g, align 8, !tbaa !11
  %52 = call i32 (ptr, ptr, i32, i64, i64, ptr, ...) @H5E_printf_stack(ptr noundef nonnull @.str, ptr noundef nonnull @__func__.H5Fget_name, i32 noundef 2009, i64 noundef %50, i64 noundef %51, ptr noundef nonnull @.str.4) #6
  br label %.thread43

53:                                               ; preds = %46
  store i32 5, ptr %4, align 8, !tbaa !15
  %54 = getelementptr inbounds nuw i8, ptr %4, i64 8
  store i32 %41, ptr %54, align 8, !tbaa !18
  %55 = getelementptr inbounds nuw i8, ptr %4, i64 16
  store i64 %2, ptr %55, align 8, !tbaa !18
  %56 = getelementptr inbounds nuw i8, ptr %4, i64 24
  store ptr %1, ptr %56, align 8, !tbaa !18
  %57 = getelementptr inbounds nuw i8, ptr %4, i64 32
  store ptr %5, ptr %57, align 8, !tbaa !18
  %58 = load i64, ptr @H5P_LST_DATASET_XFER_ID_g, align 8, !tbaa !11
  %59 = call i32 @H5VL_file_get(ptr noundef nonnull %47, ptr noundef nonnull %4, i64 noundef %58, ptr noundef null) #6
  %60 = icmp slt i32 %59, 0
  br i1 %60, label %61, label %66, !prof !14

61:                                               ; preds = %53
  %62 = load i64, ptr @H5E_FILE_g, align 8, !tbaa !11
  %63 = load i64, ptr @H5E_CANTGET_g, align 8, !tbaa !11
  %64 = call i32 (ptr, ptr, i32, i64, i64, ptr, ...) @H5E_printf_stack(ptr noundef nonnull @.str, ptr noundef nonnull @__func__.H5Fget_name, i32 noundef 2020, i64 noundef %62, i64 noundef %63, ptr noundef nonnull @.str.93) #6
  br label %.thread43

.thread43:                                        ; preds = %61, %49, %42
  %65 = call i32 @H5CX_pop(i1 noundef zeroext true) #6
  br label %.thread37

66:                                               ; preds = %53
  %67 = load i64, ptr %5, align 8, !tbaa !11
  %68 = call i32 @H5CX_pop(i1 noundef zeroext true) #6
  br label %70

.thread37:                                        ; preds = %35, %28, %15, %.thread43
  %69 = call i32 @H5E_dump_api_stack() #6
  br label %70

70:                                               ; preds = %66, %.thread37
  %.0273240 = phi i64 [ -1, %.thread37 ], [ %67, %66 ]
  call void @llvm.lifetime.end.p0(i64 480, ptr nonnull %6) #6
  call void @llvm.lifetime.end.p0(i64 8, ptr nonnull %5) #6
  call void @llvm.lifetime.end.p0(i64 40, ptr nonnull %4) #6
  ret i64 %.0273240
}